target datalayout = "e-m:e-p270:32:32-p271:32:32-p272:64:64-i64:64-i128:128-f80:128-n8:16:32:64-S128"
target triple = "x86_64-pc-linux-gnu"

; Function Attrs: mustprogress nounwind uwtable
define noundef zeroext i1 @_ZN7rocksdb12TracerHelper13SetPayloadMapERmNS_16TracePayloadTypeE(ptr noundef nonnull align 8 dereferenceable(8) %0, i8 noundef signext %1) #3 align 2 {
  %3 = alloca ptr, align 8
  %4 = alloca i8, align 1
  %5 = alloca i64, align 8
  %6 = alloca i64, align 8
  store ptr %0, ptr %3, align 8, !tbaa !94
  store i8 %1, ptr %4, align 1, !tbaa !96
  call void @llvm.lifetime.start.p0(i64 8, ptr %5) #4
  %7 = load ptr, ptr %3, align 8, !tbaa !94
  %8 = load i64, ptr %7, align 8, !tbaa !4
  store i64 %8, ptr %5, align 8, !tbaa !4
  call void @llvm.lifetime.start.p0(i64 8, ptr %6) #4
  store i64 1, ptr %6, align 8, !tbaa !4
  %9 = load i64, ptr %6, align 8, !tbaa !4
  %10 = load i8, ptr %4, align 1, !tbaa !96
  %11 = sext i8 %10 to i32
  %12 = zext i32 %11 to i64
  %13 = shl i64 %9, %12
  %14 = load ptr, ptr %3, align 8, !tbaa !94
  %15 = load i64, ptr %14, align 8, !tbaa !4
  %16 = or i64 %15, %13
  store i64 %16, ptr %14, align 8, !tbaa !4
  %17 = load i64, ptr %5, align 8, !tbaa !4
  %18 = load ptr, ptr %3, align 8, !tbaa !94
  %19 = load i64, ptr %18, align 8, !tbaa !4
  %20 = icmp ne i64 %17, %19
  call void @llvm.lifetime.end.p0(i64 8, ptr %6) #4
  call void @llvm.lifetime.end.p0(i64 8, ptr %5) #4
  ret i1 %20
}