; Function Attrs: mustprogress nofree norecurse nosync nounwind willreturn memory(argmem: readwrite) uwtable
define noundef zeroext i1 @_ZN7rocksdb12TracerHelper13SetPayloadMapERmNS_16TracePayloadTypeE(ptr noundef nonnull align 8 captures(none) dereferenceable(8) %0, i8 noundef signext %1) local_unnamed_addr #7 align 2 {
  %3 = load i64, ptr %0, align 8, !tbaa !37
  %4 = sext i8 %1 to i64
  %5 = and i64 %4, 4294967295
  %6 = shl nuw i64 1, %5
  %7 = or i64 %3, %6
  store i64 %7, ptr %0, align 8, !tbaa !37
  %8 = icmp ne i64 %3, %7
  ret i1 %8
}